target datalayout = "e-m:e-p270:32:32-p271:32:32-p272:64:64-i64:64-i128:128-f80:128-n8:16:32:64-S128"
target triple = "x86_64-pc-linux-gnu"

@dsakey = internal global ptr null, align 8
@.str.3 = private unnamed_addr constant [42 x i8] c"../openssl/test/dsa_no_digest_size_test.c\00", align 1
@.str.6 = private unnamed_addr constant [2 x i8] c"1\00", align 1
@.str.7 = private unnamed_addr constant [11 x i8] c"dataToSign\00", align 1
@.str.8 = private unnamed_addr constant [11 x i8] c"paddedData\00", align 1
@.str.9 = private unnamed_addr constant [28 x i8] c"RAND_bytes(dataToSign, len)\00", align 1
@.str.10 = private unnamed_addr constant [22 x i8] c"pkey = EVP_PKEY_new()\00", align 1
@.str.11 = private unnamed_addr constant [35 x i8] c"ctx = EVP_PKEY_CTX_new(pkey, NULL)\00", align 1
@.str.12 = private unnamed_addr constant [24 x i8] c"EVP_PKEY_sign_init(ctx)\00", align 1
@.str.13 = private unnamed_addr constant [39 x i8] c"Failed to get signature length, len=%d\00", align 1
@.str.14 = private unnamed_addr constant [38 x i8] c"signature = OPENSSL_malloc(sigLength)\00", align 1
@.str.15 = private unnamed_addr constant [23 x i8] c"Failed to sign, len=%d\00", align 1
@.str.16 = private unnamed_addr constant [26 x i8] c"EVP_PKEY_verify_init(ctx)\00", align 1
@.str.17 = private unnamed_addr constant [43 x i8] c"EVP verify with unpadded length %d failed\0A\00", align 1
@.str.18 = private unnamed_addr constant [34 x i8] c"EVP verify with length %d failed\0A\00", align 1
@.str.19 = private unnamed_addr constant [47 x i8] c"Verification with unpadded data failed, len=%d\00", align 1
@.str.20 = private unnamed_addr constant [30 x i8] c"verify with length %d failed\0A\00", align 1

; Function Attrs: nounwind uwtable
define internal i32 @sign_and_verify(i32 noundef %0) #0 {
  %2 = alloca i32, align 4
  %3 = alloca i64, align 8
  %4 = alloca i32, align 4
  %5 = alloca i32, align 4
  %6 = alloca ptr, align 8
  %7 = alloca ptr, align 8
  %8 = alloca ptr, align 8
  %9 = alloca ptr, align 8
  %10 = alloca ptr, align 8
  store i32 %0, ptr %2, align 4, !tbaa !11
  call void @llvm.lifetime.start.p0(i64 8, ptr %3) #5
  call void @llvm.lifetime.start.p0(i64 4, ptr %4) #5
  %11 = load ptr, ptr @dsakey, align 8, !tbaa !4
  %12 = call ptr @DSA_get0_q(ptr noundef %11)
  %13 = call i32 @BN_num_bits(ptr noundef %12)
  %14 = add nsw i32 %13, 7
  %15 = sdiv i32 %14, 8
  store i32 %15, ptr %4, align 4, !tbaa !11
  call void @llvm.lifetime.start.p0(i64 4, ptr %5) #5
  store i32 0, ptr %5, align 4, !tbaa !11
  call void @llvm.lifetime.start.p0(i64 8, ptr %6) #5
  %16 = load i32, ptr %2, align 4, !tbaa !11
  %17 = sext i32 %16 to i64
  %18 = call noalias ptr @CRYPTO_malloc(i64 noundef %17, ptr noundef @.str.3, i32 noundef 137)
  store ptr %18, ptr %6, align 8, !tbaa !13
  call void @llvm.lifetime.start.p0(i64 8, ptr %7) #5
  %19 = load i32, ptr %4, align 4, !tbaa !11
  %20 = sext i32 %19 to i64
  %21 = call noalias ptr @CRYPTO_malloc(i64 noundef %20, ptr noundef @.str.3, i32 noundef 138)
  store ptr %21, ptr %7, align 8, !tbaa !13
  call void @llvm.lifetime.start.p0(i64 8, ptr %8) #5
  store ptr null, ptr %8, align 8, !tbaa !13
  call void @llvm.lifetime.start.p0(i64 8, ptr %9) #5
  store ptr null, ptr %9, align 8, !tbaa !15
  call void @llvm.lifetime.start.p0(i64 8, ptr %10) #5
  store ptr null, ptr %10, align 8, !tbaa !17
  %22 = load ptr, ptr %6, align 8, !tbaa !13
  %23 = call i32 @test_ptr(ptr noundef @.str.3, i32 noundef 143, ptr noundef @.str.7, ptr noundef %22)
  %24 = icmp ne i32 %23, 0
  br i1 %24, label %25, label %35

25:                                               ; preds = %1
  %26 = load ptr, ptr %7, align 8, !tbaa !13
  %27 = call i32 @test_ptr(ptr noundef @.str.3, i32 noundef 144, ptr noundef @.str.8, ptr noundef %26)
  %28 = icmp ne i32 %27, 0
  br i1 %28, label %29, label %35

29:                                               ; preds = %25
  %30 = load ptr, ptr %6, align 8, !tbaa !13
  %31 = load i32, ptr %2, align 4, !tbaa !11
  %32 = call i32 @RAND_bytes(ptr noundef %30, i32 noundef %31)
  %33 = call i32 @test_int_eq(ptr noundef @.str.3, i32 noundef 145, ptr noundef @.str.9, ptr noundef @.str.6, i32 noundef %32, i32 noundef 1)
  %34 = icmp ne i32 %33, 0
  br i1 %34, label %36, label %35

35:                                               ; preds = %29, %25, %1
  br label %156

36:                                               ; preds = %29
  %37 = load ptr, ptr %7, align 8, !tbaa !13
  %38 = load i32, ptr %4, align 4, !tbaa !11
  %39 = sext i32 %38 to i64
  call void @llvm.memset.p0.i64(ptr align 1 %37, i8 0, i64 %39, i1 false)
  %40 = load i32, ptr %2, align 4, !tbaa !11
  %41 = load i32, ptr %4, align 4, !tbaa !11
  %42 = icmp sgt i32 %40, %41
  br i1 %42, label %43, label %48

43:                                               ; preds = %36
  %44 = load ptr, ptr %7, align 8, !tbaa !13
  %45 = load ptr, ptr %6, align 8, !tbaa !13
  %46 = load i32, ptr %4, align 4, !tbaa !11
  %47 = sext i32 %46 to i64
  call void @llvm.memcpy.p0.p0.i64(ptr align 1 %44, ptr align 1 %45, i64 %47, i1 false)
  br label %60

48:                                               ; preds = %36
  %49 = load ptr, ptr %7, align 8, !tbaa !13
  %50 = load i32, ptr %4, align 4, !tbaa !11
  %51 = sext i32 %50 to i64
  %52 = getelementptr inbounds i8, ptr %49, i64 %51
  %53 = load i32, ptr %2, align 4, !tbaa !11
  %54 = sext i32 %53 to i64
  %55 = sub i64 0, %54
  %56 = getelementptr inbounds i8, ptr %52, i64 %55
  %57 = load ptr, ptr %6, align 8, !tbaa !13
  %58 = load i32, ptr %2, align 4, !tbaa !11
  %59 = sext i32 %58 to i64
  call void @llvm.memcpy.p0.p0.i64(ptr align 1 %56, ptr align 1 %57, i64 %59, i1 false)
  br label %60

60:                                               ; preds = %48, %43
  %61 = call ptr @EVP_PKEY_new()
  store ptr %61, ptr %10, align 8, !tbaa !17
  %62 = call i32 @test_ptr(ptr noundef @.str.3, i32 noundef 154, ptr noundef @.str.10, ptr noundef %61)
  %63 = icmp ne i32 %62, 0
  br i1 %63, label %65, label %64

64:                                               ; preds = %60
  br label %156

65:                                               ; preds = %60
  %66 = load ptr, ptr %10, align 8, !tbaa !17
  %67 = load ptr, ptr @dsakey, align 8, !tbaa !4
  %68 = call i32 @EVP_PKEY_set1_DSA(ptr noundef %66, ptr noundef %67)
  %69 = load ptr, ptr %10, align 8, !tbaa !17
  %70 = call ptr @EVP_PKEY_CTX_new(ptr noundef %69, ptr noundef null)
  store ptr %70, ptr %9, align 8, !tbaa !15
  %71 = call i32 @test_ptr(ptr noundef @.str.3, i32 noundef 158, ptr noundef @.str.11, ptr noundef %70)
  %72 = icmp ne i32 %71, 0
  br i1 %72, label %74, label %73

73:                                               ; preds = %65
  br label %156

74:                                               ; preds = %65
  %75 = load ptr, ptr %9, align 8, !tbaa !15
  %76 = call i32 @EVP_PKEY_sign_init(ptr noundef %75)
  %77 = call i32 @test_int_eq(ptr noundef @.str.3, i32 noundef 160, ptr noundef @.str.12, ptr noundef @.str.6, i32 noundef %76, i32 noundef 1)
  %78 = icmp ne i32 %77, 0
  br i1 %78, label %80, label %79

79:                                               ; preds = %74
  br label %156

80:                                               ; preds = %74
  %81 = load ptr, ptr %9, align 8, !tbaa !15
  %82 = load ptr, ptr %6, align 8, !tbaa !13
  %83 = load i32, ptr %2, align 4, !tbaa !11
  %84 = sext i32 %83 to i64
  %85 = call i32 @EVP_PKEY_sign(ptr noundef %81, ptr noundef null, ptr noundef %3, ptr noundef %82, i64 noundef %84)
  %86 = icmp ne i32 %85, 1
  br i1 %86, label %87, label %89

87:                                               ; preds = %80
  %88 = load i32, ptr %2, align 4, !tbaa !11
  call void (ptr, i32, ptr, ...) @test_error(ptr noundef @.str.3, i32 noundef 164, ptr noundef @.str.13, i32 noundef %88)
  br label %156

89:                                               ; preds = %80
  %90 = load i64, ptr %3, align 8, !tbaa !19
  %91 = call noalias ptr @CRYPTO_malloc(i64 noundef %90, ptr noundef @.str.3, i32 noundef 168)
  store ptr %91, ptr %8, align 8, !tbaa !13
  %92 = call i32 @test_ptr(ptr noundef @.str.3, i32 noundef 168, ptr noundef @.str.14, ptr noundef %91)
  %93 = icmp ne i32 %92, 0
  br i1 %93, label %95, label %94

94:                                               ; preds = %89
  br label %156

95:                                               ; preds = %89
  %96 = load ptr, ptr %9, align 8, !tbaa !15
  %97 = load ptr, ptr %8, align 8, !tbaa !13
  %98 = load ptr, ptr %6, align 8, !tbaa !13
  %99 = load i32, ptr %2, align 4, !tbaa !11
  %100 = sext i32 %99 to i64
  %101 = call i32 @EVP_PKEY_sign(ptr noundef %96, ptr noundef %97, ptr noundef %3, ptr noundef %98, i64 noundef %100)
  %102 = icmp ne i32 %101, 1
  br i1 %102, label %103, label %105

103:                                              ; preds = %95
  %104 = load i32, ptr %2, align 4, !tbaa !11
  call void (ptr, i32, ptr, ...) @test_error(ptr noundef @.str.3, i32 noundef 172, ptr noundef @.str.15, i32 noundef %104)
  br label %156

105:                                              ; preds = %95
  %106 = load ptr, ptr %9, align 8, !tbaa !15
  %107 = call i32 @EVP_PKEY_verify_init(ptr noundef %106)
  %108 = call i32 @test_int_eq(ptr noundef @.str.3, i32 noundef 177, ptr noundef @.str.16, ptr noundef @.str.6, i32 noundef %107, i32 noundef 1)
  %109 = icmp ne i32 %108, 0
  br i1 %109, label %111, label %110

110:                                              ; preds = %105
  br label %156

111:                                              ; preds = %105
  %112 = load ptr, ptr %9, align 8, !tbaa !15
  %113 = load ptr, ptr %8, align 8, !tbaa !13
  %114 = load i64, ptr %3, align 8, !tbaa !19
  %115 = load ptr, ptr %6, align 8, !tbaa !13
  %116 = load i32, ptr %2, align 4, !tbaa !11
  %117 = sext i32 %116 to i64
  %118 = call i32 @EVP_PKEY_verify(ptr noundef %112, ptr noundef %113, i64 noundef %114, ptr noundef %115, i64 noundef %117)
  %119 = icmp ne i32 %118, 1
  br i1 %119, label %120, label %122

120:                                              ; preds = %111
  %121 = load i32, ptr %2, align 4, !tbaa !11
  call void (ptr, i32, ptr, ...) @test_error(ptr noundef @.str.3, i32 noundef 182, ptr noundef @.str.17, i32 noundef %121)
  br label %156

122:                                              ; preds = %111
  %123 = load ptr, ptr %9, align 8, !tbaa !15
  %124 = load ptr, ptr %8, align 8, !tbaa !13
  %125 = load i64, ptr %3, align 8, !tbaa !19
  %126 = load ptr, ptr %7, align 8, !tbaa !13
  %127 = load i32, ptr %4, align 4, !tbaa !11
  %128 = sext i32 %127 to i64
  %129 = call i32 @EVP_PKEY_verify(ptr noundef %123, ptr noundef %124, i64 noundef %125, ptr noundef %126, i64 noundef %128)
  %130 = icmp ne i32 %129, 1
  br i1 %130, label %131, label %133

131:                                              ; preds = %122
  %132 = load i32, ptr %2, align 4, !tbaa !11
  call void (ptr, i32, ptr, ...) @test_error(ptr noundef @.str.3, i32 noundef 188, ptr noundef @.str.18, i32 noundef %132)
  br label %156

133:                                              ; preds = %122
  %134 = load ptr, ptr %6, align 8, !tbaa !13
  %135 = load i32, ptr %2, align 4, !tbaa !11
  %136 = load ptr, ptr %8, align 8, !tbaa !13
  %137 = load i64, ptr %3, align 8, !tbaa !19
  %138 = trunc i64 %137 to i32
  %139 = load ptr, ptr @dsakey, align 8, !tbaa !4
  %140 = call i32 @DSA_verify(i32 noundef 0, ptr noundef %134, i32 noundef %135, ptr noundef %136, i32 noundef %138, ptr noundef %139)
  %141 = icmp ne i32 %140, 1
  br i1 %141, label %142, label %144

142:                                              ; preds = %133
  %143 = load i32, ptr %2, align 4, !tbaa !11
  call void (ptr, i32, ptr, ...) @test_error(ptr noundef @.str.3, i32 noundef 194, ptr noundef @.str.19, i32 noundef %143)
  br label %156

144:                                              ; preds = %133
  %145 = load ptr, ptr %7, align 8, !tbaa !13
  %146 = load i32, ptr %4, align 4, !tbaa !11
  %147 = load ptr, ptr %8, align 8, !tbaa !13
  %148 = load i64, ptr %3, align 8, !tbaa !19
  %149 = trunc i64 %148 to i32
  %150 = load ptr, ptr @dsakey, align 8, !tbaa !4
  %151 = call i32 @DSA_verify(i32 noundef 0, ptr noundef %145, i32 noundef %146, ptr noundef %147, i32 noundef %149, ptr noundef %150)
  %152 = icmp ne i32 %151, 1
  br i1 %152, label %153, label %155

153:                                              ; preds = %144
  %154 = load i32, ptr %2, align 4, !tbaa !11
  call void (ptr, i32, ptr, ...) @test_error(ptr noundef @.str.3, i32 noundef 199, ptr noundef @.str.20, i32 noundef %154)
  br label %156

155:                                              ; preds = %144
  store i32 1, ptr %5, align 4, !tbaa !11
  br label %156

156:                                              ; preds = %155, %153, %142, %131, %120, %110, %103, %94, %87, %79, %73, %64, %35
  %157 = load ptr, ptr %9, align 8, !tbaa !15
  call void @EVP_PKEY_CTX_free(ptr noundef %157)
  %158 = load ptr, ptr %10, align 8, !tbaa !17
  call void @EVP_PKEY_free(ptr noundef %158)
  %159 = load ptr, ptr %8, align 8, !tbaa !13
  call void @CRYPTO_free(ptr noundef %159, ptr noundef @.str.3, i32 noundef 208)
  %160 = load ptr, ptr %7, align 8, !tbaa !13
  call void @CRYPTO_free(ptr noundef %160, ptr noundef @.str.3, i32 noundef 209)
  %161 = load ptr, ptr %6, align 8, !tbaa !13
  call void @CRYPTO_free(ptr noundef %161, ptr noundef @.str.3, i32 noundef 210)
  %162 = load i32, ptr %5, align 4, !tbaa !11
  call void @llvm.lifetime.end.p0(i64 8, ptr %10) #5
  call void @llvm.lifetime.end.p0(i64 8, ptr %9) #5
  call void @llvm.lifetime.end.p0(i64 8, ptr %8) #5
  call void @llvm.lifetime.end.p0(i64 8, ptr %7) #5
  call void @llvm.lifetime.end.p0(i64 8, ptr %6) #5
  call void @llvm.lifetime.end.p0(i64 4, ptr %5) #5
  call void @llvm.lifetime.end.p0(i64 4, ptr %4) #5
  call void @llvm.lifetime.end.p0(i64 8, ptr %3) #5
  ret i32 %162
}