; Function Attrs: nounwind uwtable
define internal fastcc range(i32 0, 2) i32 @sign_and_verify(i32 noundef range(i32 1, 65) %0) unnamed_addr #0 {
  %2 = alloca i64, align 8
  call void @llvm.lifetime.start.p0(i64 8, ptr nonnull %2) #5
  %3 = load ptr, ptr @dsakey, align 8, !tbaa !4
  %4 = tail call ptr @DSA_get0_q(ptr noundef %3) #5
  %5 = tail call i32 @BN_num_bits(ptr noundef %4) #5
  %6 = add nsw i32 %5, 7
  %7 = sdiv i32 %6, 8
  %8 = zext nneg i32 %0 to i64
  %9 = tail call noalias ptr @CRYPTO_malloc(i64 noundef %8, ptr noundef nonnull @.str.3, i32 noundef 137) #5
  %10 = sext i32 %7 to i64
  %11 = tail call noalias ptr @CRYPTO_malloc(i64 noundef %10, ptr noundef nonnull @.str.3, i32 noundef 138) #5
  %12 = tail call i32 @test_ptr(ptr noundef nonnull @.str.3, i32 noundef 143, ptr noundef nonnull @.str.7, ptr noundef %9) #5
  %.not = icmp eq i32 %12, 0
  br i1 %.not, label %69, label %13

13:                                               ; preds = %1
  %14 = tail call i32 @test_ptr(ptr noundef nonnull @.str.3, i32 noundef 144, ptr noundef nonnull @.str.8, ptr noundef %11) #5
  %.not57 = icmp eq i32 %14, 0
  br i1 %.not57, label %69, label %15

15:                                               ; preds = %13
  %16 = tail call i32 @RAND_bytes(ptr noundef %9, i32 noundef %0) #5
  %17 = tail call i32 @test_int_eq(ptr noundef nonnull @.str.3, i32 noundef 145, ptr noundef nonnull @.str.9, ptr noundef nonnull @.str.6, i32 noundef %16, i32 noundef 1) #5
  %.not58 = icmp eq i32 %17, 0
  br i1 %.not58, label %69, label %18

18:                                               ; preds = %15
  tail call void @llvm.memset.p0.i64(ptr align 1 %11, i8 0, i64 %10, i1 false)
  %19 = icmp sgt i32 %0, %7
  br i1 %19, label %20, label %21

20:                                               ; preds = %18
  tail call void @llvm.memcpy.p0.p0.i64(ptr align 1 %11, ptr align 1 %9, i64 %10, i1 false)
  br label %25

21:                                               ; preds = %18
  %22 = getelementptr inbounds i8, ptr %11, i64 %10
  %23 = sub nsw i64 0, %8
  %24 = getelementptr inbounds i8, ptr %22, i64 %23
  tail call void @llvm.memcpy.p0.p0.i64(ptr noundef nonnull align 1 dereferenceable(1) %24, ptr noundef nonnull align 1 dereferenceable(1) %9, i64 %8, i1 false)
  br label %25

25:                                               ; preds = %21, %20
  %26 = tail call ptr @EVP_PKEY_new() #5
  %27 = tail call i32 @test_ptr(ptr noundef nonnull @.str.3, i32 noundef 154, ptr noundef nonnull @.str.10, ptr noundef %26) #5
  %.not59 = icmp eq i32 %27, 0
  br i1 %.not59, label %69, label %28

28:                                               ; preds = %25
  %29 = load ptr, ptr @dsakey, align 8, !tbaa !4
  %30 = tail call i32 @EVP_PKEY_set1_DSA(ptr noundef %26, ptr noundef %29) #5
  %31 = tail call ptr @EVP_PKEY_CTX_new(ptr noundef %26, ptr noundef null) #5
  %32 = tail call i32 @test_ptr(ptr noundef nonnull @.str.3, i32 noundef 158, ptr noundef nonnull @.str.11, ptr noundef %31) #5
  %.not60 = icmp eq i32 %32, 0
  br i1 %.not60, label %69, label %33

33:                                               ; preds = %28
  %34 = tail call i32 @EVP_PKEY_sign_init(ptr noundef %31) #5
  %35 = tail call i32 @test_int_eq(ptr noundef nonnull @.str.3, i32 noundef 160, ptr noundef nonnull @.str.12, ptr noundef nonnull @.str.6, i32 noundef %34, i32 noundef 1) #5
  %.not61 = icmp eq i32 %35, 0
  br i1 %.not61, label %69, label %36

36:                                               ; preds = %33
  %37 = call i32 @EVP_PKEY_sign(ptr noundef %31, ptr noundef null, ptr noundef nonnull %2, ptr noundef %9, i64 noundef %8) #5
  %.not62 = icmp eq i32 %37, 1
  br i1 %.not62, label %39, label %38

38:                                               ; preds = %36
  call void (ptr, i32, ptr, ...) @test_error(ptr noundef nonnull @.str.3, i32 noundef 164, ptr noundef nonnull @.str.13, i32 noundef %0) #5
  br label %69

39:                                               ; preds = %36
  %40 = load i64, ptr %2, align 8, !tbaa !9
  %41 = call noalias ptr @CRYPTO_malloc(i64 noundef %40, ptr noundef nonnull @.str.3, i32 noundef 168) #5
  %42 = call i32 @test_ptr(ptr noundef nonnull @.str.3, i32 noundef 168, ptr noundef nonnull @.str.14, ptr noundef %41) #5
  %.not63 = icmp eq i32 %42, 0
  br i1 %.not63, label %69, label %43

43:                                               ; preds = %39
  %44 = call i32 @EVP_PKEY_sign(ptr noundef %31, ptr noundef %41, ptr noundef nonnull %2, ptr noundef %9, i64 noundef %8) #5
  %.not64 = icmp eq i32 %44, 1
  br i1 %.not64, label %46, label %45

45:                                               ; preds = %43
  call void (ptr, i32, ptr, ...) @test_error(ptr noundef nonnull @.str.3, i32 noundef 172, ptr noundef nonnull @.str.15, i32 noundef %0) #5
  br label %69

46:                                               ; preds = %43
  %47 = call i32 @EVP_PKEY_verify_init(ptr noundef %31) #5
  %48 = call i32 @test_int_eq(ptr noundef nonnull @.str.3, i32 noundef 177, ptr noundef nonnull @.str.16, ptr noundef nonnull @.str.6, i32 noundef %47, i32 noundef 1) #5
  %.not65 = icmp eq i32 %48, 0
  br i1 %.not65, label %69, label %49

49:                                               ; preds = %46
  %50 = load i64, ptr %2, align 8, !tbaa !9
  %51 = call i32 @EVP_PKEY_verify(ptr noundef %31, ptr noundef %41, i64 noundef %50, ptr noundef %9, i64 noundef %8) #5
  %.not66 = icmp eq i32 %51, 1
  br i1 %.not66, label %53, label %52

52:                                               ; preds = %49
  call void (ptr, i32, ptr, ...) @test_error(ptr noundef nonnull @.str.3, i32 noundef 182, ptr noundef nonnull @.str.17, i32 noundef %0) #5
  br label %69

53:                                               ; preds = %49
  %54 = load i64, ptr %2, align 8, !tbaa !9
  %55 = call i32 @EVP_PKEY_verify(ptr noundef %31, ptr noundef %41, i64 noundef %54, ptr noundef %11, i64 noundef %10) #5
  %.not67 = icmp eq i32 %55, 1
  br i1 %.not67, label %57, label %56

56:                                               ; preds = %53
  call void (ptr, i32, ptr, ...) @test_error(ptr noundef nonnull @.str.3, i32 noundef 188, ptr noundef nonnull @.str.18, i32 noundef %0) #5
  br label %69

57:                                               ; preds = %53
  %58 = load i64, ptr %2, align 8, !tbaa !9
  %59 = trunc i64 %58 to i32
  %60 = load ptr, ptr @dsakey, align 8, !tbaa !4
  %61 = call i32 @DSA_verify(i32 noundef 0, ptr noundef %9, i32 noundef %0, ptr noundef %41, i32 noundef %59, ptr noundef %60) #5
  %.not68 = icmp eq i32 %61, 1
  br i1 %.not68, label %63, label %62

62:                                               ; preds = %57
  call void (ptr, i32, ptr, ...) @test_error(ptr noundef nonnull @.str.3, i32 noundef 194, ptr noundef nonnull @.str.19, i32 noundef %0) #5
  br label %69

63:                                               ; preds = %57
  %64 = load i64, ptr %2, align 8, !tbaa !9
  %65 = trunc i64 %64 to i32
  %66 = load ptr, ptr @dsakey, align 8, !tbaa !4
  %67 = call i32 @DSA_verify(i32 noundef 0, ptr noundef %11, i32 noundef %7, ptr noundef %41, i32 noundef %65, ptr noundef %66) #5
  %.not69 = icmp eq i32 %67, 1
  br i1 %.not69, label %69, label %68

68:                                               ; preds = %63
  call void (ptr, i32, ptr, ...) @test_error(ptr noundef nonnull @.str.3, i32 noundef 199, ptr noundef nonnull @.str.20, i32 noundef %0) #5
  br label %69

69:                                               ; preds = %63, %46, %39, %33, %28, %25, %1, %13, %15, %68, %62, %56, %52, %45, %38
  %.056 = phi i32 [ 0, %38 ], [ 0, %45 ], [ 0, %52 ], [ 0, %56 ], [ 0, %62 ], [ 0, %68 ], [ 0, %46 ], [ 0, %39 ], [ 0, %33 ], [ 0, %28 ], [ 0, %25 ], [ 0, %15 ], [ 0, %13 ], [ 0, %1 ], [ 1, %63 ]
  %.055 = phi ptr [ null, %38 ], [ %41, %45 ], [ %41, %52 ], [ %41, %56 ], [ %41, %62 ], [ %41, %68 ], [ %41, %46 ], [ %41, %39 ], [ null, %33 ], [ null, %28 ], [ null, %25 ], [ null, %15 ], [ null, %13 ], [ null, %1 ], [ %41, %63 ]
  %.054 = phi ptr [ %31, %38 ], [ %31, %45 ], [ %31, %52 ], [ %31, %56 ], [ %31, %62 ], [ %31, %68 ], [ %31, %46 ], [ %31, %39 ], [ %31, %33 ], [ %31, %28 ], [ null, %25 ], [ null, %15 ], [ null, %13 ], [ null, %1 ], [ %31, %63 ]
  %.0 = phi ptr [ %26, %38 ], [ %26, %45 ], [ %26, %52 ], [ %26, %56 ], [ %26, %62 ], [ %26, %68 ], [ %26, %46 ], [ %26, %39 ], [ %26, %33 ], [ %26, %28 ], [ %26, %25 ], [ null, %15 ], [ null, %13 ], [ null, %1 ], [ %26, %63 ]
  call void @EVP_PKEY_CTX_free(ptr noundef %.054) #5
  call void @EVP_PKEY_free(ptr noundef %.0) #5
  call void @CRYPTO_free(ptr noundef %.055, ptr noundef nonnull @.str.3, i32 noundef 208) #5
  call void @CRYPTO_free(ptr noundef %11, ptr noundef nonnull @.str.3, i32 noundef 209) #5
  call void @CRYPTO_free(ptr noundef %9, ptr noundef nonnull @.str.3, i32 noundef 210) #5
  call void @llvm.lifetime.end.p0(i64 8, ptr nonnull %2) #5
  ret i32 %.056
}